; ModuleID = '36/1656.c'
source_filename = "36/1656.c"
target datalayout = "e-m:e-p270:32:32-p271:32:32-p272:64:64-i64:64-f80:128-n8:16:32:64-S128"
target triple = "x86_64-pc-linux-gnu"

@.str = private unnamed_addr constant [5 x i8] c"YES\0A\00", align 1
@.str.1 = private unnamed_addr constant [4 x i8] c"NO\0A\00", align 1

; Function Attrs: noinline nounwind uwtable
define dso_local i32 @main() #0 {
  %1 = alloca i32, align 4
  %2 = alloca [205 x i8], align 16
  %3 = alloca [205 x i8], align 16
  %4 = alloca [205 x i8], align 16
  %5 = alloca i32, align 4
  %6 = alloca i32, align 4
  %7 = alloca i32, align 4
  %8 = alloca i32, align 4
  %9 = alloca i32, align 4
  %10 = alloca i32, align 4
  %11 = alloca i32, align 4
  %12 = alloca i32, align 4
  store i32 0, i32* %1, align 4
  store i32 0, i32* %6, align 4
  store i32 0, i32* %11, align 4
  store i32 0, i32* %12, align 4
  %13 = getelementptr inbounds [205 x i8], [205 x i8]* %4, i64 0, i64 0
  %14 = call i32 (i8*, ...) bitcast (i32 (...)* @gets to i32 (i8*, ...)*)(i8* %13)
  %15 = getelementptr inbounds [205 x i8], [205 x i8]* %4, i64 0, i64 0
  %16 = call i64 @strlen(i8* %15) #3
  %17 = trunc i64 %16 to i32
  store i32 %17, i32* %7, align 4
  %18 = load i32, i32* %7, align 4
  %19 = sdiv i32 %18, 2
  store i32 %19, i32* %8, align 4
  store i32 0, i32* %5, align 4
  br label %20

20:                                               ; preds = %32, %0
  %21 = load i32, i32* %5, align 4
  %22 = load i32, i32* %8, align 4
  %23 = icmp slt i32 %21, %22
  br i1 %23, label %24, label %35

24:                                               ; preds = %20
  %25 = load i32, i32* %5, align 4
  %26 = sext i32 %25 to i64
  %27 = getelementptr inbounds [205 x i8], [205 x i8]* %4, i64 0, i64 %26
  %28 = load i8, i8* %27, align 1
  %29 = load i32, i32* %5, align 4
  %30 = sext i32 %29 to i64
  %31 = getelementptr inbounds [205 x i8], [205 x i8]* %2, i64 0, i64 %30
  store i8 %28, i8* %31, align 1
  br label %32

32:                                               ; preds = %24
  %33 = load i32, i32* %5, align 4
  %34 = add nsw i32 %33, 1
  store i32 %34, i32* %5, align 4
  br label %20

35:                                               ; preds = %20
  %36 = load i32, i32* %8, align 4
  %37 = add nsw i32 %36, 1
  store i32 %37, i32* %5, align 4
  br label %38

38:                                               ; preds = %52, %35
  %39 = load i32, i32* %5, align 4
  %40 = load i32, i32* %7, align 4
  %41 = icmp slt i32 %39, %40
  br i1 %41, label %42, label %55

42:                                               ; preds = %38
  %43 = load i32, i32* %5, align 4
  %44 = sext i32 %43 to i64
  %45 = getelementptr inbounds [205 x i8], [205 x i8]* %4, i64 0, i64 %44
  %46 = load i8, i8* %45, align 1
  %47 = load i32, i32* %6, align 4
  %48 = sext i32 %47 to i64
  %49 = getelementptr inbounds [205 x i8], [205 x i8]* %3, i64 0, i64 %48
  store i8 %46, i8* %49, align 1
  %50 = load i32, i32* %6, align 4
  %51 = add nsw i32 %50, 1
  store i32 %51, i32* %6, align 4
  br label %52

52:                                               ; preds = %42
  %53 = load i32, i32* %5, align 4
  %54 = add nsw i32 %53, 1
  store i32 %54, i32* %5, align 4
  br label %38

55:                                               ; preds = %38
  store i32 0, i32* %5, align 4
  br label %56

56:                                               ; preds = %103, %55
  %57 = load i32, i32* %5, align 4
  %58 = load i32, i32* %8, align 4
  %59 = sub nsw i32 %58, 1
  %60 = icmp slt i32 %57, %59
  br i1 %60, label %61, label %106

61:                                               ; preds = %56
  %62 = load i32, i32* %5, align 4
  %63 = add nsw i32 %62, 1
  store i32 %63, i32* %9, align 4
  br label %64

64:                                               ; preds = %99, %61
  %65 = load i32, i32* %9, align 4
  %66 = load i32, i32* %8, align 4
  %67 = icmp slt i32 %65, %66
  br i1 %67, label %68, label %102

68:                                               ; preds = %64
  %69 = load i32, i32* %5, align 4
  %70 = sext i32 %69 to i64
  %71 = getelementptr inbounds [205 x i8], [205 x i8]* %2, i64 0, i64 %70
  %72 = load i8, i8* %71, align 1
  %73 = sext i8 %72 to i32
  %74 = load i32, i32* %9, align 4
  %75 = sext i32 %74 to i64
  %76 = getelementptr inbounds [205 x i8], [205 x i8]* %2, i64 0, i64 %75
  %77 = load i8, i8* %76, align 1
  %78 = sext i8 %77 to i32
  %79 = icmp slt i32 %73, %78
  br i1 %79, label %80, label %98

80:                                               ; preds = %68
  %81 = load i32, i32* %5, align 4
  %82 = sext i32 %81 to i64
  %83 = getelementptr inbounds [205 x i8], [205 x i8]* %2, i64 0, i64 %82
  %84 = load i8, i8* %83, align 1
  %85 = sext i8 %84 to i32
  store i32 %85, i32* %10, align 4
  %86 = load i32, i32* %9, align 4
  %87 = sext i32 %86 to i64
  %88 = getelementptr inbounds [205 x i8], [205 x i8]* %2, i64 0, i64 %87
  %89 = load i8, i8* %88, align 1
  %90 = load i32, i32* %5, align 4
  %91 = sext i32 %90 to i64
  %92 = getelementptr inbounds [205 x i8], [205 x i8]* %2, i64 0, i64 %91
  store i8 %89, i8* %92, align 1
  %93 = load i32, i32* %10, align 4
  %94 = trunc i32 %93 to i8
  %95 = load i32, i32* %9, align 4
  %96 = sext i32 %95 to i64
  %97 = getelementptr inbounds [205 x i8], [205 x i8]* %2, i64 0, i64 %96
  store i8 %94, i8* %97, align 1
  br label %98

98:                                               ; preds = %80, %68
  br label %99

99:                                               ; preds = %98
  %100 = load i32, i32* %9, align 4
  %101 = add nsw i32 %100, 1
  store i32 %101, i32* %9, align 4
  br label %64

102:                                              ; preds = %64
  br label %103

103:                                              ; preds = %102
  %104 = load i32, i32* %5, align 4
  %105 = add nsw i32 %104, 1
  store i32 %105, i32* %5, align 4
  br label %56

106:                                              ; preds = %56
  store i32 0, i32* %5, align 4
  br label %107

107:                                              ; preds = %154, %106
  %108 = load i32, i32* %5, align 4
  %109 = load i32, i32* %8, align 4
  %110 = sub nsw i32 %109, 1
  %111 = icmp slt i32 %108, %110
  br i1 %111, label %112, label %157

112:                                              ; preds = %107
  %113 = load i32, i32* %5, align 4
  %114 = add nsw i32 %113, 1
  store i32 %114, i32* %9, align 4
  br label %115

115:                                              ; preds = %150, %112
  %116 = load i32, i32* %9, align 4
  %117 = load i32, i32* %8, align 4
  %118 = icmp slt i32 %116, %117
  br i1 %118, label %119, label %153

119:                                              ; preds = %115
  %120 = load i32, i32* %5, align 4
  %121 = sext i32 %120 to i64
  %122 = getelementptr inbounds [205 x i8], [205 x i8]* %3, i64 0, i64 %121
  %123 = load i8, i8* %122, align 1
  %124 = sext i8 %123 to i32
  %125 = load i32, i32* %9, align 4
  %126 = sext i32 %125 to i64
  %127 = getelementptr inbounds [205 x i8], [205 x i8]* %3, i64 0, i64 %126
  %128 = load i8, i8* %127, align 1
  %129 = sext i8 %128 to i32
  %130 = icmp slt i32 %124, %129
  br i1 %130, label %131, label %149

131:                                              ; preds = %119
  %132 = load i32, i32* %5, align 4
  %133 = sext i32 %132 to i64
  %134 = getelementptr inbounds [205 x i8], [205 x i8]* %3, i64 0, i64 %133
  %135 = load i8, i8* %134, align 1
  %136 = sext i8 %135 to i32
  store i32 %136, i32* %10, align 4
  %137 = load i32, i32* %9, align 4
  %138 = sext i32 %137 to i64
  %139 = getelementptr inbounds [205 x i8], [205 x i8]* %3, i64 0, i64 %138
  %140 = load i8, i8* %139, align 1
  %141 = load i32, i32* %5, align 4
  %142 = sext i32 %141 to i64
  %143 = getelementptr inbounds [205 x i8], [205 x i8]* %3, i64 0, i64 %142
  store i8 %140, i8* %143, align 1
  %144 = load i32, i32* %10, align 4
  %145 = trunc i32 %144 to i8
  %146 = load i32, i32* %9, align 4
  %147 = sext i32 %146 to i64
  %148 = getelementptr inbounds [205 x i8], [205 x i8]* %3, i64 0, i64 %147
  store i8 %145, i8* %148, align 1
  br label %149

149:                                              ; preds = %131, %119
  br label %150

150:                                              ; preds = %149
  %151 = load i32, i32* %9, align 4
  %152 = add nsw i32 %151, 1
  store i32 %152, i32* %9, align 4
  br label %115

153:                                              ; preds = %115
  br label %154

154:                                              ; preds = %153
  %155 = load i32, i32* %5, align 4
  %156 = add nsw i32 %155, 1
  store i32 %156, i32* %5, align 4
  br label %107

157:                                              ; preds = %107
  store i32 0, i32* %5, align 4
  br label %158

158:                                              ; preds = %181, %157
  %159 = load i32, i32* %5, align 4
  %160 = load i32, i32* %8, align 4
  %161 = icmp slt i32 %159, %160
  br i1 %161, label %162, label %184

162:                                              ; preds = %158
  %163 = load i32, i32* %5, align 4
  %164 = sext i32 %163 to i64
  %165 = getelementptr inbounds [205 x i8], [205 x i8]* %2, i64 0, i64 %164
  %166 = load i8, i8* %165, align 1
  %167 = sext i8 %166 to i32
  %168 = load i32, i32* %5, align 4
  %169 = sext i32 %168 to i64
  %170 = getelementptr inbounds [205 x i8], [205 x i8]* %3, i64 0, i64 %169
  %171 = load i8, i8* %170, align 1
  %172 = sext i8 %171 to i32
  %173 = icmp eq i32 %167, %172
  br i1 %173, label %174, label %177

174:                                              ; preds = %162
  %175 = load i32, i32* %11, align 4
  %176 = add nsw i32 %175, 1
  store i32 %176, i32* %11, align 4
  br label %180

177:                                              ; preds = %162
  %178 = load i32, i32* %12, align 4
  %179 = add nsw i32 %178, 1
  store i32 %179, i32* %12, align 4
  br label %180

180:                                              ; preds = %177, %174
  br label %181

181:                                              ; preds = %180
  %182 = load i32, i32* %5, align 4
  %183 = add nsw i32 %182, 1
  store i32 %183, i32* %5, align 4
  br label %158

184:                                              ; preds = %158
  %185 = load i32, i32* %11, align 4
  %186 = load i32, i32* %8, align 4
  %187 = icmp eq i32 %185, %186
  br i1 %187, label %188, label %190

188:                                              ; preds = %184
  %189 = call i32 (i8*, ...) @printf(i8* getelementptr inbounds ([5 x i8], [5 x i8]* @.str, i64 0, i64 0))
  br label %192

190:                                              ; preds = %184
  %191 = call i32 (i8*, ...) @printf(i8* getelementptr inbounds ([4 x i8], [4 x i8]* @.str.1, i64 0, i64 0))
  br label %192

192:                                              ; preds = %190, %188
  ret i32 0
}

declare dso_local i32 @gets(...) #1

; Function Attrs: nounwind readonly
declare dso_local i64 @strlen(i8*) #2

declare dso_local i32 @printf(i8*, ...) #1


!llvm.module.flags = !{!0}
!llvm.ident = !{!1}

!0 = !{i32 1, !"wchar_size", i32 4}
!1 = !{!"clang version 10.0.0-4ubuntu1 "}
